; Function Attrs: mustprogress uwtable
define void @_ZN7openvdb5v11_06points26StringAttributeWriteHandleC2ERNS1_14AttributeArrayERKNS0_7MetaMapEb(ptr noundef nonnull align 8 dereferenceable(224) %this, ptr noundef nonnull align 8 dereferenceable(24) %array, ptr noundef nonnull align 8 dereferenceable(56) %metadata, i1 noundef zeroext %expand) unnamed_addr #3 align 2 personality ptr @__gxx_personality_v0 {
entry:
  tail call void @_ZN7openvdb5v11_06points21StringAttributeHandleC2ERKNS1_14AttributeArrayERKNS0_7MetaMapEb(ptr noundef nonnull align 8 dereferenceable(88) %this, ptr noundef nonnull align 8 dereferenceable(24) %array, ptr noundef nonnull align 8 dereferenceable(56) %metadata, i1 noundef zeroext false)
  %mCache = getelementptr inbounds i8, ptr %this, i64 88
  %_M_single_bucket.i.i.i = getelementptr inbounds i8, ptr %this, i64 136
  store ptr %_M_single_bucket.i.i.i, ptr %mCache, align 8
  %_M_bucket_count.i.i.i = getelementptr inbounds i8, ptr %this, i64 96
  store i64 1, ptr %_M_bucket_count.i.i.i, align 8
  %_M_before_begin.i.i.i = getelementptr inbounds i8, ptr %this, i64 104
  %_M_rehash_policy.i.i.i = getelementptr inbounds i8, ptr %this, i64 120
  tail call void @llvm.memset.p0.i64(ptr noundef nonnull align 8 dereferenceable(16) %_M_before_begin.i.i.i, i8 0, i64 16, i1 false)
  store float 1.000000e+00, ptr %_M_rehash_policy.i.i.i, align 8
  %_M_next_resize.i.i.i.i = getelementptr inbounds i8, ptr %this, i64 128
  tail call void @llvm.memset.p0.i64(ptr noundef nonnull align 8 dereferenceable(16) %_M_next_resize.i.i.i.i, i8 0, i64 16, i1 false)
  %mWriteHandle = getelementptr inbounds i8, ptr %this, i64 144
  invoke void @_ZN7openvdb5v11_06points15AttributeHandleIjNS1_11StringCodecILb0EEEEC2ERKNS1_14AttributeArrayEb(ptr noundef nonnull align 8 dereferenceable(73) %mWriteHandle, ptr noundef nonnull align 8 dereferenceable(24) %array, i1 noundef zeroext false)
          to label %.noexc unwind label %lpad

.noexc:                                           ; preds = %entry
  store ptr getelementptr inbounds ({ [4 x ptr] }, ptr @_ZTVN7openvdb5v11_06points20AttributeWriteHandleIjNS1_11StringCodecILb0EEEEE, i64 0, i32 0, i64 2), ptr %mWriteHandle, align 8
  br i1 %expand, label %if.then.i, label %invoke.cont

if.then.i:                                        ; preds = %.noexc
  %vtable.i = load ptr, ptr %array, align 8
  %vfn.i = getelementptr inbounds i8, ptr %vtable.i, i64 152
  %0 = load ptr, ptr %vfn.i, align 8
  invoke void %0(ptr noundef nonnull align 8 dereferenceable(24) %array, i1 noundef zeroext true)
          to label %invoke.cont unwind label %lpad.i

lpad.i:                                           ; preds = %if.then.i
  %1 = landingpad { ptr, i32 }
          cleanup
  tail call void @_ZN7openvdb5v11_06points15AttributeHandleIjNS1_11StringCodecILb0EEEED2Ev(ptr noundef nonnull align 8 dereferenceable(73) %mWriteHandle) #23
  br label %ehcleanup

invoke.cont:                                      ; preds = %if.then.i, %.noexc
  %mMetadata.i = getelementptr inbounds i8, ptr %this, i64 80
  %2 = load ptr, ptr %mMetadata.i, align 8
  invoke void @_ZN7openvdb5v11_06points15StringMetaCache5resetERKNS0_7MetaMapE(ptr noundef nonnull align 8 dereferenceable(56) %mCache, ptr noundef nonnull align 8 dereferenceable(56) %2)
          to label %invoke.cont3 unwind label %lpad2

invoke.cont3:                                     ; preds = %invoke.cont
  ret void

lpad:                                             ; preds = %entry
  %3 = landingpad { ptr, i32 }
          cleanup
  br label %ehcleanup

lpad2:                                            ; preds = %invoke.cont
  %4 = landingpad { ptr, i32 }
          cleanup
  tail call void @_ZN7openvdb5v11_06points20AttributeWriteHandleIjNS1_11StringCodecILb0EEEED2Ev(ptr noundef nonnull align 8 dereferenceable(73) %mWriteHandle) #23
  br label %ehcleanup

ehcleanup:                                        ; preds = %lpad, %lpad.i, %lpad2
  %.pn = phi { ptr, i32 } [ %4, %lpad2 ], [ %3, %lpad ], [ %1, %lpad.i ]
  tail call void @_ZN7openvdb5v11_06points15StringMetaCacheD2Ev(ptr noundef nonnull align 8 dereferenceable(56) %mCache) #23
  tail call void @_ZN7openvdb5v11_06points21StringAttributeHandleD2Ev(ptr noundef nonnull align 8 dereferenceable(88) %this) #23
  resume { ptr, i32 } %.pn
}